target datalayout = "e-m:e-p270:32:32-p271:32:32-p272:64:64-i64:64-i128:128-f80:128-n8:16:32:64-S128"
target triple = "x86_64-pc-linux-gnu"

; Function Attrs: nounwind uwtable
define hidden i32 @mbedtls_mpi_core_write_be(ptr noundef %0, i64 noundef %1, ptr noundef %2, i64 noundef %3) #0 {
  %5 = alloca i32, align 4
  %6 = alloca ptr, align 8
  %7 = alloca i64, align 8
  %8 = alloca ptr, align 8
  %9 = alloca i64, align 8
  %10 = alloca i64, align 8
  %11 = alloca i64, align 8
  %12 = alloca ptr, align 8
  %13 = alloca i64, align 8
  %14 = alloca i32, align 4
  %15 = alloca i64, align 8
  store ptr %0, ptr %6, align 8, !tbaa !7
  store i64 %1, ptr %7, align 8, !tbaa !3
  store ptr %2, ptr %8, align 8, !tbaa !22
  store i64 %3, ptr %9, align 8, !tbaa !3
  call void @llvm.lifetime.start.p0(i64 8, ptr %10) #7
  call void @llvm.lifetime.start.p0(i64 8, ptr %11) #7
  call void @llvm.lifetime.start.p0(i64 8, ptr %12) #7
  %16 = load i64, ptr %7, align 8, !tbaa !3
  %17 = mul i64 %16, 8
  store i64 %17, ptr %10, align 8, !tbaa !3
  %18 = load i64, ptr %10, align 8, !tbaa !3
  %19 = load i64, ptr %9, align 8, !tbaa !3
  %20 = icmp ult i64 %18, %19
  br i1 %20, label %21, label %33

21:                                               ; preds = %4
  %22 = load i64, ptr %10, align 8, !tbaa !3
  store i64 %22, ptr %11, align 8, !tbaa !3
  %23 = load ptr, ptr %8, align 8, !tbaa !22
  %24 = load i64, ptr %9, align 8, !tbaa !3
  %25 = getelementptr inbounds nuw i8, ptr %23, i64 %24
  %26 = load i64, ptr %10, align 8, !tbaa !3
  %27 = sub i64 0, %26
  %28 = getelementptr inbounds i8, ptr %25, i64 %27
  store ptr %28, ptr %12, align 8, !tbaa !22
  %29 = load ptr, ptr %8, align 8, !tbaa !22
  %30 = load i64, ptr %9, align 8, !tbaa !3
  %31 = load i64, ptr %10, align 8, !tbaa !3
  %32 = sub i64 %30, %31
  call void @llvm.memset.p0.i64(ptr align 1 %29, i8 0, i64 %32, i1 false)
  br label %62

33:                                               ; preds = %4
  %34 = load i64, ptr %9, align 8, !tbaa !3
  store i64 %34, ptr %11, align 8, !tbaa !3
  %35 = load ptr, ptr %8, align 8, !tbaa !22
  store ptr %35, ptr %12, align 8, !tbaa !22
  call void @llvm.lifetime.start.p0(i64 8, ptr %13) #7
  %36 = load i64, ptr %11, align 8, !tbaa !3
  store i64 %36, ptr %13, align 8, !tbaa !3
  br label %37

37:                                               ; preds = %56, %33
  %38 = load i64, ptr %13, align 8, !tbaa !3
  %39 = load i64, ptr %10, align 8, !tbaa !3
  %40 = icmp ult i64 %38, %39
  br i1 %40, label %42, label %41

41:                                               ; preds = %37
  store i32 2, ptr %14, align 4
  br label %59

42:                                               ; preds = %37
  %43 = load ptr, ptr %6, align 8, !tbaa !7
  %44 = load i64, ptr %13, align 8, !tbaa !3
  %45 = udiv i64 %44, 8
  %46 = getelementptr inbounds nuw i64, ptr %43, i64 %45
  %47 = load i64, ptr %46, align 8, !tbaa !3
  %48 = load i64, ptr %13, align 8, !tbaa !3
  %49 = urem i64 %48, 8
  %50 = mul i64 %49, 8
  %51 = lshr i64 %47, %50
  %52 = and i64 %51, 255
  %53 = icmp ne i64 %52, 0
  br i1 %53, label %54, label %55

54:                                               ; preds = %42
  store i32 -8, ptr %5, align 4
  store i32 1, ptr %14, align 4
  br label %59

55:                                               ; preds = %42
  br label %56

56:                                               ; preds = %55
  %57 = load i64, ptr %13, align 8, !tbaa !3
  %58 = add i64 %57, 1
  store i64 %58, ptr %13, align 8, !tbaa !3
  br label %37, !llvm.loop !28

59:                                               ; preds = %54, %41
  call void @llvm.lifetime.end.p0(i64 8, ptr %13) #7
  %60 = load i32, ptr %14, align 4
  switch i32 %60, label %90 [
    i32 2, label %61
  ]

61:                                               ; preds = %59
  br label %62

62:                                               ; preds = %61, %21
  call void @llvm.lifetime.start.p0(i64 8, ptr %15) #7
  store i64 0, ptr %15, align 8, !tbaa !3
  br label %63

63:                                               ; preds = %86, %62
  %64 = load i64, ptr %15, align 8, !tbaa !3
  %65 = load i64, ptr %11, align 8, !tbaa !3
  %66 = icmp ult i64 %64, %65
  br i1 %66, label %68, label %67

67:                                               ; preds = %63
  store i32 5, ptr %14, align 4
  call void @llvm.lifetime.end.p0(i64 8, ptr %15) #7
  br label %89

68:                                               ; preds = %63
  %69 = load ptr, ptr %6, align 8, !tbaa !7
  %70 = load i64, ptr %15, align 8, !tbaa !3
  %71 = udiv i64 %70, 8
  %72 = getelementptr inbounds nuw i64, ptr %69, i64 %71
  %73 = load i64, ptr %72, align 8, !tbaa !3
  %74 = load i64, ptr %15, align 8, !tbaa !3
  %75 = urem i64 %74, 8
  %76 = mul i64 %75, 8
  %77 = lshr i64 %73, %76
  %78 = and i64 %77, 255
  %79 = trunc i64 %78 to i8
  %80 = load ptr, ptr %12, align 8, !tbaa !22
  %81 = load i64, ptr %11, align 8, !tbaa !3
  %82 = load i64, ptr %15, align 8, !tbaa !3
  %83 = sub i64 %81, %82
  %84 = sub i64 %83, 1
  %85 = getelementptr inbounds nuw i8, ptr %80, i64 %84
  store i8 %79, ptr %85, align 1, !tbaa !24
  br label %86

86:                                               ; preds = %68
  %87 = load i64, ptr %15, align 8, !tbaa !3
  %88 = add i64 %87, 1
  store i64 %88, ptr %15, align 8, !tbaa !3
  br label %63, !llvm.loop !29

89:                                               ; preds = %67
  store i32 0, ptr %5, align 4
  store i32 1, ptr %14, align 4
  br label %90

90:                                               ; preds = %89, %59
  call void @llvm.lifetime.end.p0(i64 8, ptr %12) #7
  call void @llvm.lifetime.end.p0(i64 8, ptr %11) #7
  call void @llvm.lifetime.end.p0(i64 8, ptr %10) #7
  %91 = load i32, ptr %5, align 4
  ret i32 %91
}