; Function Attrs: nofree norecurse nosync nounwind memory(argmem: readwrite) uwtable
define hidden range(i32 -8, 1) i32 @mbedtls_mpi_core_write_be(ptr noundef readonly captures(none) %0, i64 noundef %1, ptr noundef writeonly captures(none) %2, i64 noundef %3) local_unnamed_addr #4 {
  %5 = shl i64 %1, 3
  %6 = icmp ult i64 %5, %3
  br i1 %6, label %7, label %.preheader

.preheader:                                       ; preds = %4
  %.not3840 = icmp ult i64 %3, %5
  br i1 %.not3840, label %.lr.ph, label %.critedge

7:                                                ; preds = %4
  %8 = getelementptr inbounds nuw i8, ptr %2, i64 %3
  %9 = sub i64 0, %5
  %10 = getelementptr inbounds i8, ptr %8, i64 %9
  %11 = sub nuw i64 %3, %5
  tail call void @llvm.memset.p0.i64(ptr align 1 %2, i8 0, i64 %11, i1 false)
  br label %.critedge

12:                                               ; preds = %.lr.ph
  %13 = add i64 %.03041, 1
  %exitcond.not = icmp eq i64 %13, %5
  br i1 %exitcond.not, label %.critedge, label %.lr.ph, !llvm.loop !22

.lr.ph:                                           ; preds = %.preheader, %12
  %.03041 = phi i64 [ %13, %12 ], [ %3, %.preheader ]
  %14 = lshr i64 %.03041, 3
  %15 = getelementptr inbounds nuw i64, ptr %0, i64 %14
  %16 = load i64, ptr %15, align 8, !tbaa !3
  %17 = shl i64 %.03041, 3
  %18 = and i64 %17, 56
  %19 = shl nuw i64 255, %18
  %20 = and i64 %16, %19
  %.not = icmp eq i64 %20, 0
  br i1 %.not, label %12, label %.loopexit

.critedge:                                        ; preds = %12, %.preheader, %7
  %.032 = phi i64 [ %5, %7 ], [ %3, %.preheader ], [ %3, %12 ]
  %.031 = phi ptr [ %10, %7 ], [ %2, %.preheader ], [ %2, %12 ]
  %.not44 = icmp eq i64 %.032, 0
  br i1 %.not44, label %.loopexit, label %.lr.ph43

.lr.ph43:                                         ; preds = %.critedge
  %21 = getelementptr i8, ptr %.031, i64 %.032
  br label %22

22:                                               ; preds = %.lr.ph43, %22
  %.042 = phi i64 [ 0, %.lr.ph43 ], [ %32, %22 ]
  %23 = lshr i64 %.042, 3
  %24 = getelementptr inbounds nuw i64, ptr %0, i64 %23
  %25 = load i64, ptr %24, align 8, !tbaa !3
  %26 = shl i64 %.042, 3
  %27 = and i64 %26, 56
  %28 = lshr i64 %25, %27
  %29 = trunc i64 %28 to i8
  %30 = xor i64 %.042, -1
  %31 = getelementptr i8, ptr %21, i64 %30
  store i8 %29, ptr %31, align 1, !tbaa !18
  %32 = add nuw i64 %.042, 1
  %exitcond46.not = icmp eq i64 %32, %.032
  br i1 %exitcond46.not, label %.loopexit, label %22, !llvm.loop !23

.loopexit:                                        ; preds = %.lr.ph, %22, %.critedge
  %.1 = phi i32 [ 0, %.critedge ], [ 0, %22 ], [ -8, %.lr.ph ]
  ret i32 %.1
}